target datalayout = "e-m:e-p270:32:32-p271:32:32-p272:64:64-i64:64-i128:128-f80:128-n8:16:32:64-S128"
target triple = "x86_64-unknown-linux-gnu"

%"class.icu_75::RuleBasedBreakIterator" = type <{ %"class.icu_75::BreakIterator.base", i8, %struct.UText, ptr, i32, i32, i32, [4 x i8], ptr, ptr, ptr, ptr, i32, [4 x i8], ptr, %"class.icu_75::UCharCharacterIterator", i8, [7 x i8], ptr, i8, [7 x i8] }>
%"class.icu_75::BreakIterator.base" = type <{ %"class.icu_75::UObject", [157 x i8], [157 x i8], [157 x i8] }>
%"class.icu_75::UObject" = type { ptr }
%struct.UText = type { i32, i32, i32, i32, i64, i32, i32, i64, i32, i32, ptr, ptr, ptr, ptr, ptr, ptr, ptr, ptr, i64, i32, i32, i64, i32, i32 }
%"class.icu_75::UCharCharacterIterator" = type { %"class.icu_75::CharacterIterator", ptr }
%"class.icu_75::CharacterIterator" = type { %"class.icu_75::ForwardCharacterIterator", i32, i32, i32, i32 }
%"class.icu_75::ForwardCharacterIterator" = type { %"class.icu_75::UObject" }
%"class.icu_75::RBBIDataWrapper" = type <{ ptr, ptr, ptr, ptr, ptr, i32, [4 x i8], ptr, %"struct.std::atomic", [4 x i8], ptr, %"class.icu_75::UnicodeString", i8, [7 x i8] }>
%"struct.std::atomic" = type { %"struct.std::__atomic_base" }
%"struct.std::__atomic_base" = type { i32 }
%"class.icu_75::UnicodeString" = type { %"class.icu_75::Replaceable", %"union.icu_75::UnicodeString::StackBufferOrFields" }
%"class.icu_75::Replaceable" = type { %"class.icu_75::UObject" }
%"union.icu_75::UnicodeString::StackBufferOrFields" = type { %struct.anon.0, [32 x i8] }
%struct.anon.0 = type { i16, i32, i32, ptr }

; Function Attrs: mustprogress nounwind uwtable
define internal noundef signext i8 @_ZL9U_FAILURE10UErrorCode(i32 noundef %code) #0 {
entry:
  %code.addr = alloca i32, align 4
  store i32 %code, ptr %code.addr, align 4
  %0 = load i32, ptr %code.addr, align 4
  %cmp = icmp sgt i32 %0, 0
  %conv = zext i1 %cmp to i8
  ret i8 %conv
}

; Function Attrs: mustprogress uwtable
define noundef i32 @_ZN6icu_7522RuleBasedBreakIterator16getRuleStatusVecEPiiR10UErrorCode(ptr noundef nonnull align 8 dereferenceable(745) %this, ptr noundef %fillInVec, i32 noundef %capacity, ptr noundef nonnull align 4 dereferenceable(4) %status) unnamed_addr #1 align 2 {
entry:
  %retval = alloca i32, align 4
  %this.addr = alloca ptr, align 8
  %fillInVec.addr = alloca ptr, align 8
  %capacity.addr = alloca i32, align 4
  %status.addr = alloca ptr, align 8
  %numVals = alloca i32, align 4
  %numValsToCopy = alloca i32, align 4
  %i = alloca i32, align 4
  store ptr %this, ptr %this.addr, align 8
  store ptr %fillInVec, ptr %fillInVec.addr, align 8
  store i32 %capacity, ptr %capacity.addr, align 4
  store ptr %status, ptr %status.addr, align 8
  %this1 = load ptr, ptr %this.addr, align 8
  %0 = load ptr, ptr %status.addr, align 8
  %1 = load i32, ptr %0, align 4
  %call = call noundef signext i8 @_ZL9U_FAILURE10UErrorCode(i32 noundef %1)
  %tobool = icmp ne i8 %call, 0
  br i1 %tobool, label %if.then, label %if.end

if.then:                                          ; preds = %entry
  store i32 0, ptr %retval, align 4
  br label %return

if.end:                                           ; preds = %entry
  %fData = getelementptr inbounds %"class.icu_75::RuleBasedBreakIterator", ptr %this1, i32 0, i32 3
  %2 = load ptr, ptr %fData, align 8
  %fRuleStatusTable = getelementptr inbounds %"class.icu_75::RBBIDataWrapper", ptr %2, i32 0, i32 4
  %3 = load ptr, ptr %fRuleStatusTable, align 8
  %fRuleStatusIndex = getelementptr inbounds %"class.icu_75::RuleBasedBreakIterator", ptr %this1, i32 0, i32 6
  %4 = load i32, ptr %fRuleStatusIndex, align 8
  %idxprom = sext i32 %4 to i64
  %arrayidx = getelementptr inbounds i32, ptr %3, i64 %idxprom
  %5 = load i32, ptr %arrayidx, align 4
  store i32 %5, ptr %numVals, align 4
  %6 = load i32, ptr %numVals, align 4
  store i32 %6, ptr %numValsToCopy, align 4
  %7 = load i32, ptr %numVals, align 4
  %8 = load i32, ptr %capacity.addr, align 4
  %cmp = icmp sgt i32 %7, %8
  br i1 %cmp, label %if.then2, label %if.end3

if.then2:                                         ; preds = %if.end
  %9 = load ptr, ptr %status.addr, align 8
  store i32 15, ptr %9, align 4
  %10 = load i32, ptr %capacity.addr, align 4
  store i32 %10, ptr %numValsToCopy, align 4
  br label %if.end3

if.end3:                                          ; preds = %if.then2, %if.end
  store i32 0, ptr %i, align 4
  br label %for.cond

for.cond:                                         ; preds = %for.inc, %if.end3
  %11 = load i32, ptr %i, align 4
  %12 = load i32, ptr %numValsToCopy, align 4
  %cmp4 = icmp slt i32 %11, %12
  br i1 %cmp4, label %for.body, label %for.end

for.body:                                         ; preds = %for.cond
  %fData5 = getelementptr inbounds %"class.icu_75::RuleBasedBreakIterator", ptr %this1, i32 0, i32 3
  %13 = load ptr, ptr %fData5, align 8
  %fRuleStatusTable6 = getelementptr inbounds %"class.icu_75::RBBIDataWrapper", ptr %13, i32 0, i32 4
  %14 = load ptr, ptr %fRuleStatusTable6, align 8
  %fRuleStatusIndex7 = getelementptr inbounds %"class.icu_75::RuleBasedBreakIterator", ptr %this1, i32 0, i32 6
  %15 = load i32, ptr %fRuleStatusIndex7, align 8
  %16 = load i32, ptr %i, align 4
  %add = add nsw i32 %15, %16
  %add8 = add nsw i32 %add, 1
  %idxprom9 = sext i32 %add8 to i64
  %arrayidx10 = getelementptr inbounds i32, ptr %14, i64 %idxprom9
  %17 = load i32, ptr %arrayidx10, align 4
  %18 = load ptr, ptr %fillInVec.addr, align 8
  %19 = load i32, ptr %i, align 4
  %idxprom11 = sext i32 %19 to i64
  %arrayidx12 = getelementptr inbounds i32, ptr %18, i64 %idxprom11
  store i32 %17, ptr %arrayidx12, align 4
  br label %for.inc

for.inc:                                          ; preds = %for.body
  %20 = load i32, ptr %i, align 4
  %inc = add nsw i32 %20, 1
  store i32 %inc, ptr %i, align 4
  br label %for.cond, !llvm.loop !16

for.end:                                          ; preds = %for.cond
  %21 = load i32, ptr %numVals, align 4
  store i32 %21, ptr %retval, align 4
  br label %return

return:                                           ; preds = %for.end, %if.then
  %22 = load i32, ptr %retval, align 4
  ret i32 %22
}