; Function Attrs: mustprogress nofree norecurse nosync nounwind memory(read, argmem: readwrite, inaccessiblemem: none) uwtable
define noundef i32 @_ZN6icu_7522RuleBasedBreakIterator16getRuleStatusVecEPiiR10UErrorCode(ptr nocapture noundef nonnull readonly align 8 dereferenceable(745) %this, ptr nocapture noundef writeonly %fillInVec, i32 noundef %capacity, ptr nocapture noundef nonnull align 4 dereferenceable(4) %status) unnamed_addr #9 align 2 {
entry:
  %0 = load i32, ptr %status, align 4
  %cmp.i = icmp slt i32 %0, 1
  br i1 %cmp.i, label %if.end, label %return

if.end:                                           ; preds = %entry
  %fData = getelementptr inbounds i8, ptr %this, i64 624
  %1 = load ptr, ptr %fData, align 8
  %fRuleStatusTable = getelementptr inbounds i8, ptr %1, i64 32
  %2 = load ptr, ptr %fRuleStatusTable, align 8
  %fRuleStatusIndex = getelementptr inbounds i8, ptr %this, i64 640
  %3 = load i32, ptr %fRuleStatusIndex, align 8
  %idxprom = sext i32 %3 to i64
  %arrayidx = getelementptr inbounds i32, ptr %2, i64 %idxprom
  %4 = load i32, ptr %arrayidx, align 4
  %cmp = icmp sgt i32 %4, %capacity
  br i1 %cmp, label %if.then2, label %if.end3

if.then2:                                         ; preds = %if.end
  store i32 15, ptr %status, align 4
  br label %if.end3

if.end3:                                          ; preds = %if.then2, %if.end
  %numValsToCopy.0 = phi i32 [ %capacity, %if.then2 ], [ %4, %if.end ]
  %cmp48 = icmp sgt i32 %numValsToCopy.0, 0
  br i1 %cmp48, label %for.body.preheader, label %return

for.body.preheader:                               ; preds = %if.end3
  %wide.trip.count = zext nneg i32 %numValsToCopy.0 to i64
  br label %for.body

for.body:                                         ; preds = %for.body.preheader, %for.body
  %indvars.iv = phi i64 [ 0, %for.body.preheader ], [ %indvars.iv.next, %for.body ]
  %5 = load ptr, ptr %fData, align 8
  %fRuleStatusTable6 = getelementptr inbounds i8, ptr %5, i64 32
  %6 = load ptr, ptr %fRuleStatusTable6, align 8
  %7 = load i32, ptr %fRuleStatusIndex, align 8
  %8 = trunc i64 %indvars.iv to i32
  %add = add nsw i32 %7, %8
  %9 = sext i32 %add to i64
  %10 = getelementptr i32, ptr %6, i64 %9
  %arrayidx10 = getelementptr i8, ptr %10, i64 4
  %11 = load i32, ptr %arrayidx10, align 4
  %arrayidx12 = getelementptr inbounds i32, ptr %fillInVec, i64 %indvars.iv
  store i32 %11, ptr %arrayidx12, align 4
  %indvars.iv.next = add nuw nsw i64 %indvars.iv, 1
  %exitcond.not = icmp eq i64 %indvars.iv.next, %wide.trip.count
  br i1 %exitcond.not, label %return, label %for.body, !llvm.loop !16

return:                                           ; preds = %for.body, %if.end3, %entry
  %retval.0 = phi i32 [ 0, %entry ], [ %4, %if.end3 ], [ %4, %for.body ]
  ret i32 %retval.0
}